target datalayout = "e-m:e-p270:32:32-p271:32:32-p272:64:64-i64:64-i128:128-f80:128-n8:16:32:64-S128"
target triple = "x86_64-pc-linux-gnu"

%"class.std::vector.231" = type { %"struct.std::_Vector_base.232" }
%"struct.std::_Vector_base.232" = type { %"struct.std::_Vector_base<std::__cxx11::basic_string<char>, std::allocator<std::__cxx11::basic_string<char>>>::_Vector_impl" }
%"struct.std::_Vector_base<std::__cxx11::basic_string<char>, std::allocator<std::__cxx11::basic_string<char>>>::_Vector_impl" = type { %"struct.std::_Vector_base<std::__cxx11::basic_string<char>, std::allocator<std::__cxx11::basic_string<char>>>::_Vector_impl_data" }
%"struct.std::_Vector_base<std::__cxx11::basic_string<char>, std::allocator<std::__cxx11::basic_string<char>>>::_Vector_impl_data" = type { ptr, ptr, ptr }
%"class.std::__cxx11::basic_string" = type { %"struct.std::__cxx11::basic_string<char>::_Alloc_hider", i64, %union.anon }
%"struct.std::__cxx11::basic_string<char>::_Alloc_hider" = type { ptr }
%union.anon = type { i64, [8 x i8] }
%"class.std::chrono::duration" = type { i64 }
%"class.cvc5::internal::WallClockTimer" = type { %"class.std::chrono::time_point", %"class.std::chrono::time_point" }
%"class.std::chrono::time_point" = type { %"class.std::chrono::duration" }
%"class.cvc5::internal::ResourceManager" = type { ptr, i8, %"class.cvc5::internal::WallClockTimer", i64, i64, i64, i64, %"class.std::vector", %"struct.std::array", %"struct.std::array.10", %"class.std::unique_ptr.11" }
%"class.std::vector" = type { %"struct.std::_Vector_base" }
%"struct.std::_Vector_base" = type { %"struct.std::_Vector_base<cvc5::internal::Listener *, std::allocator<cvc5::internal::Listener *>>::_Vector_impl" }
%"struct.std::_Vector_base<cvc5::internal::Listener *, std::allocator<cvc5::internal::Listener *>>::_Vector_impl" = type { %"struct.std::_Vector_base<cvc5::internal::Listener *, std::allocator<cvc5::internal::Listener *>>::_Vector_impl_data" }
%"struct.std::_Vector_base<cvc5::internal::Listener *, std::allocator<cvc5::internal::Listener *>>::_Vector_impl_data" = type { ptr, ptr, ptr }
%"struct.std::array" = type { [392 x i64] }
%"struct.std::array.10" = type { [20 x i64] }
%"class.std::unique_ptr.11" = type { %"struct.std::__uniq_ptr_data.12" }
%"struct.std::__uniq_ptr_data.12" = type { %"class.std::__uniq_ptr_impl.13" }
%"class.std::__uniq_ptr_impl.13" = type { %"class.std::tuple.14" }
%"class.std::tuple.14" = type { %"struct.std::_Tuple_impl.15" }
%"struct.std::_Tuple_impl.15" = type { %"struct.std::_Head_base.18" }
%"struct.std::_Head_base.18" = type { ptr }
%"class.cvc5::internal::Options" = type { %"class.std::unique_ptr.19", %"class.std::unique_ptr.27", %"class.std::unique_ptr.35", %"class.std::unique_ptr.43", %"class.std::unique_ptr.51", %"class.std::unique_ptr.59", %"class.std::unique_ptr.67", %"class.std::unique_ptr.75", %"class.std::unique_ptr.83", %"class.std::unique_ptr.91", %"class.std::unique_ptr.99", %"class.std::unique_ptr.107", %"class.std::unique_ptr.115", %"class.std::unique_ptr.123", %"class.std::unique_ptr.131", %"class.std::unique_ptr.139", %"class.std::unique_ptr.147", %"class.std::unique_ptr.155", %"class.std::unique_ptr.163", %"class.std::unique_ptr.171", %"class.std::unique_ptr.179", %"class.std::unique_ptr.187", %"class.std::unique_ptr.195", %"class.std::unique_ptr.203", %"class.std::unique_ptr.211", ptr, ptr, ptr, ptr, ptr, ptr, ptr, ptr, ptr, ptr, ptr, ptr, ptr, ptr, ptr, ptr, ptr, ptr, ptr, ptr, ptr, ptr, ptr, ptr, ptr, %"class.std::unique_ptr.219" }
%"class.std::unique_ptr.19" = type { %"struct.std::__uniq_ptr_data.20" }
%"struct.std::__uniq_ptr_data.20" = type { %"class.std::__uniq_ptr_impl.21" }
%"class.std::__uniq_ptr_impl.21" = type { %"class.std::tuple.22" }
%"class.std::tuple.22" = type { %"struct.std::_Tuple_impl.23" }
%"struct.std::_Tuple_impl.23" = type { %"struct.std::_Head_base.26" }
%"struct.std::_Head_base.26" = type { ptr }
%"class.std::unique_ptr.27" = type { %"struct.std::__uniq_ptr_data.28" }
%"struct.std::__uniq_ptr_data.28" = type { %"class.std::__uniq_ptr_impl.29" }
%"class.std::__uniq_ptr_impl.29" = type { %"class.std::tuple.30" }
%"class.std::tuple.30" = type { %"struct.std::_Tuple_impl.31" }
%"struct.std::_Tuple_impl.31" = type { %"struct.std::_Head_base.34" }
%"struct.std::_Head_base.34" = type { ptr }
%"class.std::unique_ptr.35" = type { %"struct.std::__uniq_ptr_data.36" }
%"struct.std::__uniq_ptr_data.36" = type { %"class.std::__uniq_ptr_impl.37" }
%"class.std::__uniq_ptr_impl.37" = type { %"class.std::tuple.38" }
%"class.std::tuple.38" = type { %"struct.std::_Tuple_impl.39" }
%"struct.std::_Tuple_impl.39" = type { %"struct.std::_Head_base.42" }
%"struct.std::_Head_base.42" = type { ptr }
%"class.std::unique_ptr.43" = type { %"struct.std::__uniq_ptr_data.44" }
%"struct.std::__uniq_ptr_data.44" = type { %"class.std::__uniq_ptr_impl.45" }
%"class.std::__uniq_ptr_impl.45" = type { %"class.std::tuple.46" }
%"class.std::tuple.46" = type { %"struct.std::_Tuple_impl.47" }
%"struct.std::_Tuple_impl.47" = type { %"struct.std::_Head_base.50" }
%"struct.std::_Head_base.50" = type { ptr }
%"class.std::unique_ptr.51" = type { %"struct.std::__uniq_ptr_data.52" }
%"struct.std::__uniq_ptr_data.52" = type { %"class.std::__uniq_ptr_impl.53" }
%"class.std::__uniq_ptr_impl.53" = type { %"class.std::tuple.54" }
%"class.std::tuple.54" = type { %"struct.std::_Tuple_impl.55" }
%"struct.std::_Tuple_impl.55" = type { %"struct.std::_Head_base.58" }
%"struct.std::_Head_base.58" = type { ptr }
%"class.std::unique_ptr.59" = type { %"struct.std::__uniq_ptr_data.60" }
%"struct.std::__uniq_ptr_data.60" = type { %"class.std::__uniq_ptr_impl.61" }
%"class.std::__uniq_ptr_impl.61" = type { %"class.std::tuple.62" }
%"class.std::tuple.62" = type { %"struct.std::_Tuple_impl.63" }
%"struct.std::_Tuple_impl.63" = type { %"struct.std::_Head_base.66" }
%"struct.std::_Head_base.66" = type { ptr }
%"class.std::unique_ptr.67" = type { %"struct.std::__uniq_ptr_data.68" }
%"struct.std::__uniq_ptr_data.68" = type { %"class.std::__uniq_ptr_impl.69" }
%"class.std::__uniq_ptr_impl.69" = type { %"class.std::tuple.70" }
%"class.std::tuple.70" = type { %"struct.std::_Tuple_impl.71" }
%"struct.std::_Tuple_impl.71" = type { %"struct.std::_Head_base.74" }
%"struct.std::_Head_base.74" = type { ptr }
%"class.std::unique_ptr.75" = type { %"struct.std::__uniq_ptr_data.76" }
%"struct.std::__uniq_ptr_data.76" = type { %"class.std::__uniq_ptr_impl.77" }
%"class.std::__uniq_ptr_impl.77" = type { %"class.std::tuple.78" }
%"class.std::tuple.78" = type { %"struct.std::_Tuple_impl.79" }
%"struct.std::_Tuple_impl.79" = type { %"struct.std::_Head_base.82" }
%"struct.std::_Head_base.82" = type { ptr }
%"class.std::unique_ptr.83" = type { %"struct.std::__uniq_ptr_data.84" }
%"struct.std::__uniq_ptr_data.84" = type { %"class.std::__uniq_ptr_impl.85" }
%"class.std::__uniq_ptr_impl.85" = type { %"class.std::tuple.86" }
%"class.std::tuple.86" = type { %"struct.std::_Tuple_impl.87" }
%"struct.std::_Tuple_impl.87" = type { %"struct.std::_Head_base.90" }
%"struct.std::_Head_base.90" = type { ptr }
%"class.std::unique_ptr.91" = type { %"struct.std::__uniq_ptr_data.92" }
%"struct.std::__uniq_ptr_data.92" = type { %"class.std::__uniq_ptr_impl.93" }
%"class.std::__uniq_ptr_impl.93" = type { %"class.std::tuple.94" }
%"class.std::tuple.94" = type { %"struct.std::_Tuple_impl.95" }
%"struct.std::_Tuple_impl.95" = type { %"struct.std::_Head_base.98" }
%"struct.std::_Head_base.98" = type { ptr }
%"class.std::unique_ptr.99" = type { %"struct.std::__uniq_ptr_data.100" }
%"struct.std::__uniq_ptr_data.100" = type { %"class.std::__uniq_ptr_impl.101" }
%"class.std::__uniq_ptr_impl.101" = type { %"class.std::tuple.102" }
%"class.std::tuple.102" = type { %"struct.std::_Tuple_impl.103" }
%"struct.std::_Tuple_impl.103" = type { %"struct.std::_Head_base.106" }
%"struct.std::_Head_base.106" = type { ptr }
%"class.std::unique_ptr.107" = type { %"struct.std::__uniq_ptr_data.108" }
%"struct.std::__uniq_ptr_data.108" = type { %"class.std::__uniq_ptr_impl.109" }
%"class.std::__uniq_ptr_impl.109" = type { %"class.std::tuple.110" }
%"class.std::tuple.110" = type { %"struct.std::_Tuple_impl.111" }
%"struct.std::_Tuple_impl.111" = type { %"struct.std::_Head_base.114" }
%"struct.std::_Head_base.114" = type { ptr }
%"class.std::unique_ptr.115" = type { %"struct.std::__uniq_ptr_data.116" }
%"struct.std::__uniq_ptr_data.116" = type { %"class.std::__uniq_ptr_impl.117" }
%"class.std::__uniq_ptr_impl.117" = type { %"class.std::tuple.118" }
%"class.std::tuple.118" = type { %"struct.std::_Tuple_impl.119" }
%"struct.std::_Tuple_impl.119" = type { %"struct.std::_Head_base.122" }
%"struct.std::_Head_base.122" = type { ptr }
%"class.std::unique_ptr.123" = type { %"struct.std::__uniq_ptr_data.124" }
%"struct.std::__uniq_ptr_data.124" = type { %"class.std::__uniq_ptr_impl.125" }
%"class.std::__uniq_ptr_impl.125" = type { %"class.std::tuple.126" }
%"class.std::tuple.126" = type { %"struct.std::_Tuple_impl.127" }
%"struct.std::_Tuple_impl.127" = type { %"struct.std::_Head_base.130" }
%"struct.std::_Head_base.130" = type { ptr }
%"class.std::unique_ptr.131" = type { %"struct.std::__uniq_ptr_data.132" }
%"struct.std::__uniq_ptr_data.132" = type { %"class.std::__uniq_ptr_impl.133" }
%"class.std::__uniq_ptr_impl.133" = type { %"class.std::tuple.134" }
%"class.std::tuple.134" = type { %"struct.std::_Tuple_impl.135" }
%"struct.std::_Tuple_impl.135" = type { %"struct.std::_Head_base.138" }
%"struct.std::_Head_base.138" = type { ptr }
%"class.std::unique_ptr.139" = type { %"struct.std::__uniq_ptr_data.140" }
%"struct.std::__uniq_ptr_data.140" = type { %"class.std::__uniq_ptr_impl.141" }
%"class.std::__uniq_ptr_impl.141" = type { %"class.std::tuple.142" }
%"class.std::tuple.142" = type { %"struct.std::_Tuple_impl.143" }
%"struct.std::_Tuple_impl.143" = type { %"struct.std::_Head_base.146" }
%"struct.std::_Head_base.146" = type { ptr }
%"class.std::unique_ptr.147" = type { %"struct.std::__uniq_ptr_data.148" }
%"struct.std::__uniq_ptr_data.148" = type { %"class.std::__uniq_ptr_impl.149" }
%"class.std::__uniq_ptr_impl.149" = type { %"class.std::tuple.150" }
%"class.std::tuple.150" = type { %"struct.std::_Tuple_impl.151" }
%"struct.std::_Tuple_impl.151" = type { %"struct.std::_Head_base.154" }
%"struct.std::_Head_base.154" = type { ptr }
%"class.std::unique_ptr.155" = type { %"struct.std::__uniq_ptr_data.156" }
%"struct.std::__uniq_ptr_data.156" = type { %"class.std::__uniq_ptr_impl.157" }
%"class.std::__uniq_ptr_impl.157" = type { %"class.std::tuple.158" }
%"class.std::tuple.158" = type { %"struct.std::_Tuple_impl.159" }
%"struct.std::_Tuple_impl.159" = type { %"struct.std::_Head_base.162" }
%"struct.std::_Head_base.162" = type { ptr }
%"class.std::unique_ptr.163" = type { %"struct.std::__uniq_ptr_data.164" }
%"struct.std::__uniq_ptr_data.164" = type { %"class.std::__uniq_ptr_impl.165" }
%"class.std::__uniq_ptr_impl.165" = type { %"class.std::tuple.166" }
%"class.std::tuple.166" = type { %"struct.std::_Tuple_impl.167" }
%"struct.std::_Tuple_impl.167" = type { %"struct.std::_Head_base.170" }
%"struct.std::_Head_base.170" = type { ptr }
%"class.std::unique_ptr.171" = type { %"struct.std::__uniq_ptr_data.172" }
%"struct.std::__uniq_ptr_data.172" = type { %"class.std::__uniq_ptr_impl.173" }
%"class.std::__uniq_ptr_impl.173" = type { %"class.std::tuple.174" }
%"class.std::tuple.174" = type { %"struct.std::_Tuple_impl.175" }
%"struct.std::_Tuple_impl.175" = type { %"struct.std::_Head_base.178" }
%"struct.std::_Head_base.178" = type { ptr }
%"class.std::unique_ptr.179" = type { %"struct.std::__uniq_ptr_data.180" }
%"struct.std::__uniq_ptr_data.180" = type { %"class.std::__uniq_ptr_impl.181" }
%"class.std::__uniq_ptr_impl.181" = type { %"class.std::tuple.182" }
%"class.std::tuple.182" = type { %"struct.std::_Tuple_impl.183" }
%"struct.std::_Tuple_impl.183" = type { %"struct.std::_Head_base.186" }
%"struct.std::_Head_base.186" = type { ptr }
%"class.std::unique_ptr.187" = type { %"struct.std::__uniq_ptr_data.188" }
%"struct.std::__uniq_ptr_data.188" = type { %"class.std::__uniq_ptr_impl.189" }
%"class.std::__uniq_ptr_impl.189" = type { %"class.std::tuple.190" }
%"class.std::tuple.190" = type { %"struct.std::_Tuple_impl.191" }
%"struct.std::_Tuple_impl.191" = type { %"struct.std::_Head_base.194" }
%"struct.std::_Head_base.194" = type { ptr }
%"class.std::unique_ptr.195" = type { %"struct.std::__uniq_ptr_data.196" }
%"struct.std::__uniq_ptr_data.196" = type { %"class.std::__uniq_ptr_impl.197" }
%"class.std::__uniq_ptr_impl.197" = type { %"class.std::tuple.198" }
%"class.std::tuple.198" = type { %"struct.std::_Tuple_impl.199" }
%"struct.std::_Tuple_impl.199" = type { %"struct.std::_Head_base.202" }
%"struct.std::_Head_base.202" = type { ptr }
%"class.std::unique_ptr.203" = type { %"struct.std::__uniq_ptr_data.204" }
%"struct.std::__uniq_ptr_data.204" = type { %"class.std::__uniq_ptr_impl.205" }
%"class.std::__uniq_ptr_impl.205" = type { %"class.std::tuple.206" }
%"class.std::tuple.206" = type { %"struct.std::_Tuple_impl.207" }
%"struct.std::_Tuple_impl.207" = type { %"struct.std::_Head_base.210" }
%"struct.std::_Head_base.210" = type { ptr }
%"class.std::unique_ptr.211" = type { %"struct.std::__uniq_ptr_data.212" }
%"struct.std::__uniq_ptr_data.212" = type { %"class.std::__uniq_ptr_impl.213" }
%"class.std::__uniq_ptr_impl.213" = type { %"class.std::tuple.214" }
%"class.std::tuple.214" = type { %"struct.std::_Tuple_impl.215" }
%"struct.std::_Tuple_impl.215" = type { %"struct.std::_Head_base.218" }
%"struct.std::_Head_base.218" = type { ptr }
%"class.std::unique_ptr.219" = type { %"struct.std::__uniq_ptr_data.220" }
%"struct.std::__uniq_ptr_data.220" = type { %"class.std::__uniq_ptr_impl.221" }
%"class.std::__uniq_ptr_impl.221" = type { %"class.std::tuple.222" }
%"class.std::tuple.222" = type { %"struct.std::_Tuple_impl.223" }
%"struct.std::_Tuple_impl.223" = type { %"struct.std::_Head_base.226" }
%"struct.std::_Head_base.226" = type { ptr }
%"struct.cvc5::internal::options::HolderBASE" = type <{ %"class.cvc5::internal::ManagedErr", i8, [7 x i8], %"class.cvc5::internal::ManagedIn", i8, i8, i8, i8, i32, i8, [7 x i8], %"class.cvc5::internal::ManagedOut", i8, i8, i8, i8, i8, i8, i8, i8, i8, [7 x i8], i64, i8, [7 x i8], i64, i8, i8, i8, i8, i8, i8, i8, i8, i8, i8, i8, [5 x i8], i64, i8, [7 x i8], i64, i8, [7 x i8], i64, i8, [7 x i8], %"class.std::bitset", i8, [7 x i8], %"class.std::vector.231", i8, [7 x i8] }>
%"class.cvc5::internal::ManagedErr" = type { %"class.cvc5::internal::ManagedStream" }
%"class.cvc5::internal::ManagedStream" = type { ptr, ptr, %"class.std::shared_ptr", %"class.std::__cxx11::basic_string" }
%"class.std::shared_ptr" = type { %"class.std::__shared_ptr" }
%"class.std::__shared_ptr" = type { ptr, %"class.std::__shared_count" }
%"class.std::__shared_count" = type { ptr }
%"class.cvc5::internal::ManagedIn" = type { %"class.cvc5::internal::ManagedStream.227" }
%"class.cvc5::internal::ManagedStream.227" = type { ptr, ptr, %"class.std::shared_ptr.228", %"class.std::__cxx11::basic_string" }
%"class.std::shared_ptr.228" = type { %"class.std::__shared_ptr.229" }
%"class.std::__shared_ptr.229" = type { ptr, %"class.std::__shared_count" }
%"class.cvc5::internal::ManagedOut" = type { %"class.cvc5::internal::ManagedStream" }
%"class.std::bitset" = type { %"struct.std::_Base_bitset" }
%"struct.std::_Base_bitset" = type { i64 }

; Function Attrs: mustprogress nounwind uwtable
define hidden noundef zeroext i1 @_ZNK4cvc58internal15ResourceManager7limitOnEv(ptr noundef nonnull align 8 dereferenceable(3392) %0) #6 align 2 {
  %2 = alloca ptr, align 8
  store ptr %0, ptr %2, align 8, !tbaa !56
  %3 = load ptr, ptr %2, align 8
  %4 = getelementptr inbounds nuw %"class.cvc5::internal::ResourceManager", ptr %3, i32 0, i32 0
  %5 = load ptr, ptr %4, align 8, !tbaa !81
  %6 = getelementptr inbounds nuw %"class.cvc5::internal::Options", ptr %5, i32 0, i32 28
  %7 = load ptr, ptr %6, align 8, !tbaa !82
  %8 = getelementptr inbounds nuw %"struct.cvc5::internal::options::HolderBASE", ptr %7, i32 0, i32 22
  %9 = load i64, ptr %8, align 8, !tbaa !319
  %10 = icmp ugt i64 %9, 0
  br i1 %10, label %27, label %11

11:                                               ; preds = %1
  %12 = getelementptr inbounds nuw %"class.cvc5::internal::ResourceManager", ptr %3, i32 0, i32 0
  %13 = load ptr, ptr %12, align 8, !tbaa !81
  %14 = getelementptr inbounds nuw %"class.cvc5::internal::Options", ptr %13, i32 0, i32 28
  %15 = load ptr, ptr %14, align 8, !tbaa !82
  %16 = getelementptr inbounds nuw %"struct.cvc5::internal::options::HolderBASE", ptr %15, i32 0, i32 41
  %17 = load i64, ptr %16, align 8, !tbaa !298
  %18 = icmp ugt i64 %17, 0
  br i1 %18, label %27, label %19

19:                                               ; preds = %11
  %20 = getelementptr inbounds nuw %"class.cvc5::internal::ResourceManager", ptr %3, i32 0, i32 0
  %21 = load ptr, ptr %20, align 8, !tbaa !81
  %22 = getelementptr inbounds nuw %"class.cvc5::internal::Options", ptr %21, i32 0, i32 28
  %23 = load ptr, ptr %22, align 8, !tbaa !82
  %24 = getelementptr inbounds nuw %"struct.cvc5::internal::options::HolderBASE", ptr %23, i32 0, i32 25
  %25 = load i64, ptr %24, align 8, !tbaa !368
  %26 = icmp ugt i64 %25, 0
  br label %27

27:                                               ; preds = %19, %11, %1
  %28 = phi i1 [ true, %11 ], [ true, %1 ], [ %26, %19 ]
  ret i1 %28
}