; Function Attrs: mustprogress nofree norecurse nosync nounwind willreturn memory(read, inaccessiblemem: none) uwtable
define hidden noundef zeroext i1 @_ZNK4cvc58internal15ResourceManager7limitOnEv(ptr noundef nonnull readonly align 8 captures(none) dereferenceable(3392) %0) local_unnamed_addr #13 align 2 {
  %2 = load ptr, ptr %0, align 8, !tbaa !61
  %3 = getelementptr inbounds nuw i8, ptr %2, i64 224
  %4 = load ptr, ptr %3, align 8, !tbaa !62
  %5 = getelementptr inbounds nuw i8, ptr %4, i64 232
  %6 = load i64, ptr %5, align 8, !tbaa !278
  %.not = icmp eq i64 %6, 0
  br i1 %.not, label %7, label %14

7:                                                ; preds = %1
  %8 = getelementptr inbounds nuw i8, ptr %4, i64 288
  %9 = load i64, ptr %8, align 8, !tbaa !256
  %.not1 = icmp eq i64 %9, 0
  br i1 %.not1, label %10, label %14

10:                                               ; preds = %7
  %11 = getelementptr inbounds nuw i8, ptr %4, i64 248
  %12 = load i64, ptr %11, align 8, !tbaa !282
  %13 = icmp ne i64 %12, 0
  br label %14

14:                                               ; preds = %10, %7, %1
  %15 = phi i1 [ true, %7 ], [ true, %1 ], [ %13, %10 ]
  ret i1 %15
}